; Function Attrs: mustprogress uwtable
define hidden noundef zeroext i1 @_ZNK4cvc58internal20FloatingPointLiteraleqERKS1_(ptr noundef nonnull align 8 dereferenceable(64) %0, ptr noundef nonnull align 8 dereferenceable(64) %1) local_unnamed_addr #4 align 2 {
  %3 = load i32, ptr %0, align 8, !tbaa !3
  %4 = load i32, ptr %1, align 8, !tbaa !3
  %5 = icmp eq i32 %3, %4
  %6 = getelementptr inbounds nuw i8, ptr %0, i64 4
  %7 = load i32, ptr %6, align 4
  %8 = getelementptr inbounds nuw i8, ptr %1, i64 4
  %9 = load i32, ptr %8, align 4
  %10 = icmp eq i32 %7, %9
  %11 = select i1 %5, i1 %10, i1 false
  br i1 %11, label %12, label %16

12:                                               ; preds = %2
  %13 = getelementptr inbounds nuw i8, ptr %0, i64 8
  %14 = getelementptr inbounds nuw i8, ptr %1, i64 8
  %15 = tail call noundef zeroext i1 @_ZN6symfpu11smtlibEqualIN4cvc58internal13symfpuLiteral6traitsEEENT_4propERKNS5_3fptERKNS_13unpackedFloatIS5_EESD_(ptr noundef nonnull align 4 dereferenceable(8) %0, ptr noundef nonnull align 8 dereferenceable(56) %13, ptr noundef nonnull align 8 dereferenceable(56) %14)
  br label %16

16:                                               ; preds = %12, %2
  %17 = phi i1 [ false, %2 ], [ %15, %12 ]
  ret i1 %17
}